; Function Attrs: mustprogress nofree norecurse nosync nounwind willreturn memory(readwrite, inaccessiblemem: none) uwtable
define hidden void @_ZN5zxing8BitArray9setUncharEih(ptr noundef nonnull readonly align 8 captures(none) dereferenceable(88) %0, i32 noundef %1, i8 noundef zeroext %2) local_unnamed_addr #2 align 2 {
  %4 = getelementptr inbounds nuw i8, ptr %0, i64 32
  %5 = load ptr, ptr %4, align 8, !tbaa !17
  %6 = getelementptr inbounds nuw i8, ptr %5, i64 16
  %7 = sext i32 %1 to i64
  %8 = load ptr, ptr %6, align 8, !tbaa !18
  %9 = getelementptr inbounds nuw i8, ptr %8, i64 %7
  store i8 %2, ptr %9, align 1, !tbaa !30
  ret void
}